ARM GAS  /tmp/ccaPL8tU.s 			page 1


   1              		.cpu cortex-m7
   2              		.eabi_attribute 27, 1
   3              		.eabi_attribute 28, 1
   4              		.eabi_attribute 20, 1
   5              		.eabi_attribute 21, 1
   6              		.eabi_attribute 23, 3
   7              		.eabi_attribute 24, 1
   8              		.eabi_attribute 25, 1
   9              		.eabi_attribute 26, 1
  10              		.eabi_attribute 30, 1
  11              		.eabi_attribute 34, 1
  12              		.eabi_attribute 18, 4
  13              		.file	"stm32f7xx_hal_msp.c"
  14              		.text
  15              	.Ltext0:
  16              		.cfi_sections	.debug_frame
  17              		.section	.text.HAL_MspInit,"ax",%progbits
  18              		.align	1
  19              		.global	HAL_MspInit
  20              		.syntax unified
  21              		.thumb
  22              		.thumb_func
  23              		.fpu fpv5-sp-d16
  25              	HAL_MspInit:
  26              	.LFB136:
  27              		.file 1 "Src/stm32f7xx_hal_msp.c"
   1:Src/stm32f7xx_hal_msp.c **** /**
   2:Src/stm32f7xx_hal_msp.c ****   ******************************************************************************
   3:Src/stm32f7xx_hal_msp.c ****   * File Name          : stm32f7xx_hal_msp.c
   4:Src/stm32f7xx_hal_msp.c ****   * Description        : This file provides code for the MSP Initialization 
   5:Src/stm32f7xx_hal_msp.c ****   *                      and de-Initialization codes.
   6:Src/stm32f7xx_hal_msp.c ****   ******************************************************************************
   7:Src/stm32f7xx_hal_msp.c ****   * This notice applies to any and all portions of this file
   8:Src/stm32f7xx_hal_msp.c ****   * that are not between comment pairs USER CODE BEGIN and
   9:Src/stm32f7xx_hal_msp.c ****   * USER CODE END. Other portions of this file, whether 
  10:Src/stm32f7xx_hal_msp.c ****   * inserted by the user or by software development tools
  11:Src/stm32f7xx_hal_msp.c ****   * are owned by their respective copyright owners.
  12:Src/stm32f7xx_hal_msp.c ****   *
  13:Src/stm32f7xx_hal_msp.c ****   * Copyright (c) 2018 STMicroelectronics International N.V. 
  14:Src/stm32f7xx_hal_msp.c ****   * All rights reserved.
  15:Src/stm32f7xx_hal_msp.c ****   *
  16:Src/stm32f7xx_hal_msp.c ****   * Redistribution and use in source and binary forms, with or without 
  17:Src/stm32f7xx_hal_msp.c ****   * modification, are permitted, provided that the following conditions are met:
  18:Src/stm32f7xx_hal_msp.c ****   *
  19:Src/stm32f7xx_hal_msp.c ****   * 1. Redistribution of source code must retain the above copyright notice, 
  20:Src/stm32f7xx_hal_msp.c ****   *    this list of conditions and the following disclaimer.
  21:Src/stm32f7xx_hal_msp.c ****   * 2. Redistributions in binary form must reproduce the above copyright notice,
  22:Src/stm32f7xx_hal_msp.c ****   *    this list of conditions and the following disclaimer in the documentation
  23:Src/stm32f7xx_hal_msp.c ****   *    and/or other materials provided with the distribution.
  24:Src/stm32f7xx_hal_msp.c ****   * 3. Neither the name of STMicroelectronics nor the names of other 
  25:Src/stm32f7xx_hal_msp.c ****   *    contributors to this software may be used to endorse or promote products 
  26:Src/stm32f7xx_hal_msp.c ****   *    derived from this software without specific written permission.
  27:Src/stm32f7xx_hal_msp.c ****   * 4. This software, including modifications and/or derivative works of this 
  28:Src/stm32f7xx_hal_msp.c ****   *    software, must execute solely and exclusively on microcontroller or
  29:Src/stm32f7xx_hal_msp.c ****   *    microprocessor devices manufactured by or for STMicroelectronics.
  30:Src/stm32f7xx_hal_msp.c ****   * 5. Redistribution and use of this software other than as permitted under 
  31:Src/stm32f7xx_hal_msp.c ****   *    this license is void and will automatically terminate your rights under 
ARM GAS  /tmp/ccaPL8tU.s 			page 2


  32:Src/stm32f7xx_hal_msp.c ****   *    this license. 
  33:Src/stm32f7xx_hal_msp.c ****   *
  34:Src/stm32f7xx_hal_msp.c ****   * THIS SOFTWARE IS PROVIDED BY STMICROELECTRONICS AND CONTRIBUTORS "AS IS" 
  35:Src/stm32f7xx_hal_msp.c ****   * AND ANY EXPRESS, IMPLIED OR STATUTORY WARRANTIES, INCLUDING, BUT NOT 
  36:Src/stm32f7xx_hal_msp.c ****   * LIMITED TO, THE IMPLIED WARRANTIES OF MERCHANTABILITY, FITNESS FOR A 
  37:Src/stm32f7xx_hal_msp.c ****   * PARTICULAR PURPOSE AND NON-INFRINGEMENT OF THIRD PARTY INTELLECTUAL PROPERTY
  38:Src/stm32f7xx_hal_msp.c ****   * RIGHTS ARE DISCLAIMED TO THE FULLEST EXTENT PERMITTED BY LAW. IN NO EVENT 
  39:Src/stm32f7xx_hal_msp.c ****   * SHALL STMICROELECTRONICS OR CONTRIBUTORS BE LIABLE FOR ANY DIRECT, INDIRECT,
  40:Src/stm32f7xx_hal_msp.c ****   * INCIDENTAL, SPECIAL, EXEMPLARY, OR CONSEQUENTIAL DAMAGES (INCLUDING, BUT NOT
  41:Src/stm32f7xx_hal_msp.c ****   * LIMITED TO, PROCUREMENT OF SUBSTITUTE GOODS OR SERVICES; LOSS OF USE, DATA, 
  42:Src/stm32f7xx_hal_msp.c ****   * OR PROFITS; OR BUSINESS INTERRUPTION) HOWEVER CAUSED AND ON ANY THEORY OF 
  43:Src/stm32f7xx_hal_msp.c ****   * LIABILITY, WHETHER IN CONTRACT, STRICT LIABILITY, OR TORT (INCLUDING 
  44:Src/stm32f7xx_hal_msp.c ****   * NEGLIGENCE OR OTHERWISE) ARISING IN ANY WAY OUT OF THE USE OF THIS SOFTWARE,
  45:Src/stm32f7xx_hal_msp.c ****   * EVEN IF ADVISED OF THE POSSIBILITY OF SUCH DAMAGE.
  46:Src/stm32f7xx_hal_msp.c ****   *
  47:Src/stm32f7xx_hal_msp.c ****   ******************************************************************************
  48:Src/stm32f7xx_hal_msp.c ****   */
  49:Src/stm32f7xx_hal_msp.c **** /* Includes ------------------------------------------------------------------*/
  50:Src/stm32f7xx_hal_msp.c **** #include "stm32f7xx_hal.h"
  51:Src/stm32f7xx_hal_msp.c **** extern void _Error_Handler(char *, int);
  52:Src/stm32f7xx_hal_msp.c **** /* USER CODE BEGIN 0 */
  53:Src/stm32f7xx_hal_msp.c **** 
  54:Src/stm32f7xx_hal_msp.c **** /* USER CODE END 0 */
  55:Src/stm32f7xx_hal_msp.c **** /**
  56:Src/stm32f7xx_hal_msp.c ****   * Initializes the Global MSP.
  57:Src/stm32f7xx_hal_msp.c ****   */
  58:Src/stm32f7xx_hal_msp.c **** void HAL_MspInit(void)
  59:Src/stm32f7xx_hal_msp.c **** {
  28              		.loc 1 59 0
  29              		.cfi_startproc
  30              		@ args = 0, pretend = 0, frame = 8
  31              		@ frame_needed = 0, uses_anonymous_args = 0
  32 0000 00B5     		push	{lr}
  33              	.LCFI0:
  34              		.cfi_def_cfa_offset 4
  35              		.cfi_offset 14, -4
  36 0002 83B0     		sub	sp, sp, #12
  37              	.LCFI1:
  38              		.cfi_def_cfa_offset 16
  39              	.LBB2:
  60:Src/stm32f7xx_hal_msp.c ****   /* USER CODE BEGIN MspInit 0 */
  61:Src/stm32f7xx_hal_msp.c **** 
  62:Src/stm32f7xx_hal_msp.c ****   /* USER CODE END MspInit 0 */
  63:Src/stm32f7xx_hal_msp.c **** 
  64:Src/stm32f7xx_hal_msp.c ****   __HAL_RCC_PWR_CLK_ENABLE();
  40              		.loc 1 64 0
  41 0004 214B     		ldr	r3, .L3
  42 0006 1A6C     		ldr	r2, [r3, #64]
  43 0008 42F08052 		orr	r2, r2, #268435456
  44 000c 1A64     		str	r2, [r3, #64]
  45 000e 1A6C     		ldr	r2, [r3, #64]
  46 0010 02F08052 		and	r2, r2, #268435456
  47 0014 0092     		str	r2, [sp]
  48 0016 009A     		ldr	r2, [sp]
  49              	.LBE2:
  50              	.LBB3:
  65:Src/stm32f7xx_hal_msp.c ****   __HAL_RCC_SYSCFG_CLK_ENABLE();
ARM GAS  /tmp/ccaPL8tU.s 			page 3


  51              		.loc 1 65 0
  52 0018 5A6C     		ldr	r2, [r3, #68]
  53 001a 42F48042 		orr	r2, r2, #16384
  54 001e 5A64     		str	r2, [r3, #68]
  55 0020 5B6C     		ldr	r3, [r3, #68]
  56 0022 03F48043 		and	r3, r3, #16384
  57 0026 0193     		str	r3, [sp, #4]
  58 0028 019B     		ldr	r3, [sp, #4]
  59              	.LBE3:
  66:Src/stm32f7xx_hal_msp.c **** 
  67:Src/stm32f7xx_hal_msp.c ****   HAL_NVIC_SetPriorityGrouping(NVIC_PRIORITYGROUP_4);
  60              		.loc 1 67 0
  61 002a 0320     		movs	r0, #3
  62 002c FFF7FEFF 		bl	HAL_NVIC_SetPriorityGrouping
  63              	.LVL0:
  68:Src/stm32f7xx_hal_msp.c **** 
  69:Src/stm32f7xx_hal_msp.c ****   /* System interrupt init*/
  70:Src/stm32f7xx_hal_msp.c ****   /* MemoryManagement_IRQn interrupt configuration */
  71:Src/stm32f7xx_hal_msp.c ****   HAL_NVIC_SetPriority(MemoryManagement_IRQn, 0, 0);
  64              		.loc 1 71 0
  65 0030 0022     		movs	r2, #0
  66 0032 1146     		mov	r1, r2
  67 0034 6FF00B00 		mvn	r0, #11
  68 0038 FFF7FEFF 		bl	HAL_NVIC_SetPriority
  69              	.LVL1:
  72:Src/stm32f7xx_hal_msp.c ****   /* BusFault_IRQn interrupt configuration */
  73:Src/stm32f7xx_hal_msp.c ****   HAL_NVIC_SetPriority(BusFault_IRQn, 0, 0);
  70              		.loc 1 73 0
  71 003c 0022     		movs	r2, #0
  72 003e 1146     		mov	r1, r2
  73 0040 6FF00A00 		mvn	r0, #10
  74 0044 FFF7FEFF 		bl	HAL_NVIC_SetPriority
  75              	.LVL2:
  74:Src/stm32f7xx_hal_msp.c ****   /* UsageFault_IRQn interrupt configuration */
  75:Src/stm32f7xx_hal_msp.c ****   HAL_NVIC_SetPriority(UsageFault_IRQn, 0, 0);
  76              		.loc 1 75 0
  77 0048 0022     		movs	r2, #0
  78 004a 1146     		mov	r1, r2
  79 004c 6FF00900 		mvn	r0, #9
  80 0050 FFF7FEFF 		bl	HAL_NVIC_SetPriority
  81              	.LVL3:
  76:Src/stm32f7xx_hal_msp.c ****   /* SVCall_IRQn interrupt configuration */
  77:Src/stm32f7xx_hal_msp.c ****   HAL_NVIC_SetPriority(SVCall_IRQn, 0, 0);
  82              		.loc 1 77 0
  83 0054 0022     		movs	r2, #0
  84 0056 1146     		mov	r1, r2
  85 0058 6FF00400 		mvn	r0, #4
  86 005c FFF7FEFF 		bl	HAL_NVIC_SetPriority
  87              	.LVL4:
  78:Src/stm32f7xx_hal_msp.c ****   /* DebugMonitor_IRQn interrupt configuration */
  79:Src/stm32f7xx_hal_msp.c ****   HAL_NVIC_SetPriority(DebugMonitor_IRQn, 0, 0);
  88              		.loc 1 79 0
  89 0060 0022     		movs	r2, #0
  90 0062 1146     		mov	r1, r2
  91 0064 6FF00300 		mvn	r0, #3
  92 0068 FFF7FEFF 		bl	HAL_NVIC_SetPriority
  93              	.LVL5:
ARM GAS  /tmp/ccaPL8tU.s 			page 4


  80:Src/stm32f7xx_hal_msp.c ****   /* PendSV_IRQn interrupt configuration */
  81:Src/stm32f7xx_hal_msp.c ****   HAL_NVIC_SetPriority(PendSV_IRQn, 15, 0);
  94              		.loc 1 81 0
  95 006c 0022     		movs	r2, #0
  96 006e 0F21     		movs	r1, #15
  97 0070 6FF00100 		mvn	r0, #1
  98 0074 FFF7FEFF 		bl	HAL_NVIC_SetPriority
  99              	.LVL6:
  82:Src/stm32f7xx_hal_msp.c ****   /* SysTick_IRQn interrupt configuration */
  83:Src/stm32f7xx_hal_msp.c ****   HAL_NVIC_SetPriority(SysTick_IRQn, 15, 0);
 100              		.loc 1 83 0
 101 0078 0022     		movs	r2, #0
 102 007a 0F21     		movs	r1, #15
 103 007c 4FF0FF30 		mov	r0, #-1
 104 0080 FFF7FEFF 		bl	HAL_NVIC_SetPriority
 105              	.LVL7:
  84:Src/stm32f7xx_hal_msp.c **** 
  85:Src/stm32f7xx_hal_msp.c ****   /* USER CODE BEGIN MspInit 1 */
  86:Src/stm32f7xx_hal_msp.c **** 
  87:Src/stm32f7xx_hal_msp.c ****   /* USER CODE END MspInit 1 */
  88:Src/stm32f7xx_hal_msp.c **** }
 106              		.loc 1 88 0
 107 0084 03B0     		add	sp, sp, #12
 108              	.LCFI2:
 109              		.cfi_def_cfa_offset 4
 110              		@ sp needed
 111 0086 5DF804FB 		ldr	pc, [sp], #4
 112              	.L4:
 113 008a 00BF     		.align	2
 114              	.L3:
 115 008c 00380240 		.word	1073887232
 116              		.cfi_endproc
 117              	.LFE136:
 119              		.section	.text.HAL_I2C_MspInit,"ax",%progbits
 120              		.align	1
 121              		.global	HAL_I2C_MspInit
 122              		.syntax unified
 123              		.thumb
 124              		.thumb_func
 125              		.fpu fpv5-sp-d16
 127              	HAL_I2C_MspInit:
 128              	.LFB137:
  89:Src/stm32f7xx_hal_msp.c **** 
  90:Src/stm32f7xx_hal_msp.c **** void HAL_I2C_MspInit(I2C_HandleTypeDef* hi2c)
  91:Src/stm32f7xx_hal_msp.c **** {
 129              		.loc 1 91 0
 130              		.cfi_startproc
 131              		@ args = 0, pretend = 0, frame = 24
 132              		@ frame_needed = 0, uses_anonymous_args = 0
 133              	.LVL8:
  92:Src/stm32f7xx_hal_msp.c **** 
  93:Src/stm32f7xx_hal_msp.c ****   GPIO_InitTypeDef GPIO_InitStruct;
  94:Src/stm32f7xx_hal_msp.c ****   if(hi2c->Instance==I2C2)
 134              		.loc 1 94 0
 135 0000 0268     		ldr	r2, [r0]
 136 0002 104B     		ldr	r3, .L12
 137 0004 9A42     		cmp	r2, r3
ARM GAS  /tmp/ccaPL8tU.s 			page 5


 138 0006 00D0     		beq	.L11
 139 0008 7047     		bx	lr
 140              	.L11:
  91:Src/stm32f7xx_hal_msp.c **** 
 141              		.loc 1 91 0
 142 000a 00B5     		push	{lr}
 143              	.LCFI3:
 144              		.cfi_def_cfa_offset 4
 145              		.cfi_offset 14, -4
 146 000c 87B0     		sub	sp, sp, #28
 147              	.LCFI4:
 148              		.cfi_def_cfa_offset 32
  95:Src/stm32f7xx_hal_msp.c ****   {
  96:Src/stm32f7xx_hal_msp.c ****   /* USER CODE BEGIN I2C2_MspInit 0 */
  97:Src/stm32f7xx_hal_msp.c **** 
  98:Src/stm32f7xx_hal_msp.c ****   /* USER CODE END I2C2_MspInit 0 */
  99:Src/stm32f7xx_hal_msp.c ****   
 100:Src/stm32f7xx_hal_msp.c ****     /**I2C2 GPIO Configuration    
 101:Src/stm32f7xx_hal_msp.c ****     PF0     ------> I2C2_SDA
 102:Src/stm32f7xx_hal_msp.c ****     PF1     ------> I2C2_SCL 
 103:Src/stm32f7xx_hal_msp.c ****     */
 104:Src/stm32f7xx_hal_msp.c ****     GPIO_InitStruct.Pin = GPIO_PIN_0|GPIO_PIN_1;
 149              		.loc 1 104 0
 150 000e 0323     		movs	r3, #3
 151 0010 0193     		str	r3, [sp, #4]
 105:Src/stm32f7xx_hal_msp.c ****     GPIO_InitStruct.Mode = GPIO_MODE_AF_OD;
 152              		.loc 1 105 0
 153 0012 1222     		movs	r2, #18
 154 0014 0292     		str	r2, [sp, #8]
 106:Src/stm32f7xx_hal_msp.c ****     GPIO_InitStruct.Pull = GPIO_PULLUP;
 155              		.loc 1 106 0
 156 0016 0122     		movs	r2, #1
 157 0018 0392     		str	r2, [sp, #12]
 107:Src/stm32f7xx_hal_msp.c ****     GPIO_InitStruct.Speed = GPIO_SPEED_FREQ_VERY_HIGH;
 158              		.loc 1 107 0
 159 001a 0493     		str	r3, [sp, #16]
 108:Src/stm32f7xx_hal_msp.c ****     GPIO_InitStruct.Alternate = GPIO_AF4_I2C2;
 160              		.loc 1 108 0
 161 001c 0423     		movs	r3, #4
 162 001e 0593     		str	r3, [sp, #20]
 109:Src/stm32f7xx_hal_msp.c ****     HAL_GPIO_Init(GPIOF, &GPIO_InitStruct);
 163              		.loc 1 109 0
 164 0020 0DEB0301 		add	r1, sp, r3
 165 0024 0848     		ldr	r0, .L12+4
 166              	.LVL9:
 167 0026 FFF7FEFF 		bl	HAL_GPIO_Init
 168              	.LVL10:
 169              	.LBB4:
 110:Src/stm32f7xx_hal_msp.c **** 
 111:Src/stm32f7xx_hal_msp.c ****     /* Peripheral clock enable */
 112:Src/stm32f7xx_hal_msp.c ****     __HAL_RCC_I2C2_CLK_ENABLE();
 170              		.loc 1 112 0
 171 002a 084B     		ldr	r3, .L12+8
 172 002c 1A6C     		ldr	r2, [r3, #64]
 173 002e 42F48002 		orr	r2, r2, #4194304
 174 0032 1A64     		str	r2, [r3, #64]
 175 0034 1B6C     		ldr	r3, [r3, #64]
ARM GAS  /tmp/ccaPL8tU.s 			page 6


 176 0036 03F48003 		and	r3, r3, #4194304
 177 003a 0093     		str	r3, [sp]
 178 003c 009B     		ldr	r3, [sp]
 179              	.LBE4:
 113:Src/stm32f7xx_hal_msp.c ****   /* USER CODE BEGIN I2C2_MspInit 1 */
 114:Src/stm32f7xx_hal_msp.c **** 
 115:Src/stm32f7xx_hal_msp.c ****   /* USER CODE END I2C2_MspInit 1 */
 116:Src/stm32f7xx_hal_msp.c ****   }
 117:Src/stm32f7xx_hal_msp.c **** 
 118:Src/stm32f7xx_hal_msp.c **** }
 180              		.loc 1 118 0
 181 003e 07B0     		add	sp, sp, #28
 182              	.LCFI5:
 183              		.cfi_def_cfa_offset 4
 184              		@ sp needed
 185 0040 5DF804FB 		ldr	pc, [sp], #4
 186              	.L13:
 187              		.align	2
 188              	.L12:
 189 0044 00580040 		.word	1073764352
 190 0048 00140240 		.word	1073878016
 191 004c 00380240 		.word	1073887232
 192              		.cfi_endproc
 193              	.LFE137:
 195              		.section	.text.HAL_I2C_MspDeInit,"ax",%progbits
 196              		.align	1
 197              		.global	HAL_I2C_MspDeInit
 198              		.syntax unified
 199              		.thumb
 200              		.thumb_func
 201              		.fpu fpv5-sp-d16
 203              	HAL_I2C_MspDeInit:
 204              	.LFB138:
 119:Src/stm32f7xx_hal_msp.c **** 
 120:Src/stm32f7xx_hal_msp.c **** void HAL_I2C_MspDeInit(I2C_HandleTypeDef* hi2c)
 121:Src/stm32f7xx_hal_msp.c **** {
 205              		.loc 1 121 0
 206              		.cfi_startproc
 207              		@ args = 0, pretend = 0, frame = 0
 208              		@ frame_needed = 0, uses_anonymous_args = 0
 209              	.LVL11:
 210 0000 08B5     		push	{r3, lr}
 211              	.LCFI6:
 212              		.cfi_def_cfa_offset 8
 213              		.cfi_offset 3, -8
 214              		.cfi_offset 14, -4
 122:Src/stm32f7xx_hal_msp.c **** 
 123:Src/stm32f7xx_hal_msp.c ****   if(hi2c->Instance==I2C2)
 215              		.loc 1 123 0
 216 0002 0268     		ldr	r2, [r0]
 217 0004 064B     		ldr	r3, .L18
 218 0006 9A42     		cmp	r2, r3
 219 0008 00D0     		beq	.L17
 220              	.LVL12:
 221              	.L14:
 124:Src/stm32f7xx_hal_msp.c ****   {
 125:Src/stm32f7xx_hal_msp.c ****   /* USER CODE BEGIN I2C2_MspDeInit 0 */
ARM GAS  /tmp/ccaPL8tU.s 			page 7


 126:Src/stm32f7xx_hal_msp.c **** 
 127:Src/stm32f7xx_hal_msp.c ****   /* USER CODE END I2C2_MspDeInit 0 */
 128:Src/stm32f7xx_hal_msp.c ****     /* Peripheral clock disable */
 129:Src/stm32f7xx_hal_msp.c ****     __HAL_RCC_I2C2_CLK_DISABLE();
 130:Src/stm32f7xx_hal_msp.c ****   
 131:Src/stm32f7xx_hal_msp.c ****     /**I2C2 GPIO Configuration    
 132:Src/stm32f7xx_hal_msp.c ****     PF0     ------> I2C2_SDA
 133:Src/stm32f7xx_hal_msp.c ****     PF1     ------> I2C2_SCL 
 134:Src/stm32f7xx_hal_msp.c ****     */
 135:Src/stm32f7xx_hal_msp.c ****     HAL_GPIO_DeInit(GPIOF, GPIO_PIN_0|GPIO_PIN_1);
 136:Src/stm32f7xx_hal_msp.c **** 
 137:Src/stm32f7xx_hal_msp.c ****   /* USER CODE BEGIN I2C2_MspDeInit 1 */
 138:Src/stm32f7xx_hal_msp.c **** 
 139:Src/stm32f7xx_hal_msp.c ****   /* USER CODE END I2C2_MspDeInit 1 */
 140:Src/stm32f7xx_hal_msp.c ****   }
 141:Src/stm32f7xx_hal_msp.c **** 
 142:Src/stm32f7xx_hal_msp.c **** }
 222              		.loc 1 142 0
 223 000a 08BD     		pop	{r3, pc}
 224              	.LVL13:
 225              	.L17:
 129:Src/stm32f7xx_hal_msp.c ****   
 226              		.loc 1 129 0
 227 000c 054A     		ldr	r2, .L18+4
 228 000e 136C     		ldr	r3, [r2, #64]
 229 0010 23F48003 		bic	r3, r3, #4194304
 230 0014 1364     		str	r3, [r2, #64]
 135:Src/stm32f7xx_hal_msp.c **** 
 231              		.loc 1 135 0
 232 0016 0321     		movs	r1, #3
 233 0018 0348     		ldr	r0, .L18+8
 234              	.LVL14:
 235 001a FFF7FEFF 		bl	HAL_GPIO_DeInit
 236              	.LVL15:
 237              		.loc 1 142 0
 238 001e F4E7     		b	.L14
 239              	.L19:
 240              		.align	2
 241              	.L18:
 242 0020 00580040 		.word	1073764352
 243 0024 00380240 		.word	1073887232
 244 0028 00140240 		.word	1073878016
 245              		.cfi_endproc
 246              	.LFE138:
 248              		.section	.text.HAL_UART_MspInit,"ax",%progbits
 249              		.align	1
 250              		.global	HAL_UART_MspInit
 251              		.syntax unified
 252              		.thumb
 253              		.thumb_func
 254              		.fpu fpv5-sp-d16
 256              	HAL_UART_MspInit:
 257              	.LFB139:
 143:Src/stm32f7xx_hal_msp.c **** 
 144:Src/stm32f7xx_hal_msp.c **** void HAL_UART_MspInit(UART_HandleTypeDef* huart)
 145:Src/stm32f7xx_hal_msp.c **** {
 258              		.loc 1 145 0
ARM GAS  /tmp/ccaPL8tU.s 			page 8


 259              		.cfi_startproc
 260              		@ args = 0, pretend = 0, frame = 24
 261              		@ frame_needed = 0, uses_anonymous_args = 0
 262              	.LVL16:
 146:Src/stm32f7xx_hal_msp.c **** 
 147:Src/stm32f7xx_hal_msp.c ****   GPIO_InitTypeDef GPIO_InitStruct;
 148:Src/stm32f7xx_hal_msp.c ****   if(huart->Instance==USART3)
 263              		.loc 1 148 0
 264 0000 0268     		ldr	r2, [r0]
 265 0002 114B     		ldr	r3, .L27
 266 0004 9A42     		cmp	r2, r3
 267 0006 00D0     		beq	.L26
 268 0008 7047     		bx	lr
 269              	.L26:
 145:Src/stm32f7xx_hal_msp.c **** 
 270              		.loc 1 145 0
 271 000a 00B5     		push	{lr}
 272              	.LCFI7:
 273              		.cfi_def_cfa_offset 4
 274              		.cfi_offset 14, -4
 275 000c 87B0     		sub	sp, sp, #28
 276              	.LCFI8:
 277              		.cfi_def_cfa_offset 32
 278              	.LBB5:
 149:Src/stm32f7xx_hal_msp.c ****   {
 150:Src/stm32f7xx_hal_msp.c ****   /* USER CODE BEGIN USART3_MspInit 0 */
 151:Src/stm32f7xx_hal_msp.c **** 
 152:Src/stm32f7xx_hal_msp.c ****   /* USER CODE END USART3_MspInit 0 */
 153:Src/stm32f7xx_hal_msp.c ****     /* Peripheral clock enable */
 154:Src/stm32f7xx_hal_msp.c ****     __HAL_RCC_USART3_CLK_ENABLE();
 279              		.loc 1 154 0
 280 000e 03F5F833 		add	r3, r3, #126976
 281 0012 1A6C     		ldr	r2, [r3, #64]
 282 0014 42F48022 		orr	r2, r2, #262144
 283 0018 1A64     		str	r2, [r3, #64]
 284 001a 1B6C     		ldr	r3, [r3, #64]
 285 001c 03F48023 		and	r3, r3, #262144
 286 0020 0093     		str	r3, [sp]
 287 0022 009B     		ldr	r3, [sp]
 288              	.LBE5:
 155:Src/stm32f7xx_hal_msp.c ****   
 156:Src/stm32f7xx_hal_msp.c ****     /**USART3 GPIO Configuration    
 157:Src/stm32f7xx_hal_msp.c ****     PD8     ------> USART3_TX
 158:Src/stm32f7xx_hal_msp.c ****     PD9     ------> USART3_RX 
 159:Src/stm32f7xx_hal_msp.c ****     */
 160:Src/stm32f7xx_hal_msp.c ****     GPIO_InitStruct.Pin = STLK_RX_Pin|STLK_TX_Pin;
 289              		.loc 1 160 0
 290 0024 4FF44073 		mov	r3, #768
 291 0028 0193     		str	r3, [sp, #4]
 161:Src/stm32f7xx_hal_msp.c ****     GPIO_InitStruct.Mode = GPIO_MODE_AF_PP;
 292              		.loc 1 161 0
 293 002a 0223     		movs	r3, #2
 294 002c 0293     		str	r3, [sp, #8]
 162:Src/stm32f7xx_hal_msp.c ****     GPIO_InitStruct.Pull = GPIO_NOPULL;
 295              		.loc 1 162 0
 296 002e 0023     		movs	r3, #0
 297 0030 0393     		str	r3, [sp, #12]
ARM GAS  /tmp/ccaPL8tU.s 			page 9


 163:Src/stm32f7xx_hal_msp.c ****     GPIO_InitStruct.Speed = GPIO_SPEED_FREQ_VERY_HIGH;
 298              		.loc 1 163 0
 299 0032 0323     		movs	r3, #3
 300 0034 0493     		str	r3, [sp, #16]
 164:Src/stm32f7xx_hal_msp.c ****     GPIO_InitStruct.Alternate = GPIO_AF7_USART3;
 301              		.loc 1 164 0
 302 0036 0723     		movs	r3, #7
 303 0038 0593     		str	r3, [sp, #20]
 165:Src/stm32f7xx_hal_msp.c ****     HAL_GPIO_Init(GPIOD, &GPIO_InitStruct);
 304              		.loc 1 165 0
 305 003a 01A9     		add	r1, sp, #4
 306 003c 0348     		ldr	r0, .L27+4
 307              	.LVL17:
 308 003e FFF7FEFF 		bl	HAL_GPIO_Init
 309              	.LVL18:
 166:Src/stm32f7xx_hal_msp.c **** 
 167:Src/stm32f7xx_hal_msp.c ****   /* USER CODE BEGIN USART3_MspInit 1 */
 168:Src/stm32f7xx_hal_msp.c **** 
 169:Src/stm32f7xx_hal_msp.c ****   /* USER CODE END USART3_MspInit 1 */
 170:Src/stm32f7xx_hal_msp.c ****   }
 171:Src/stm32f7xx_hal_msp.c **** 
 172:Src/stm32f7xx_hal_msp.c **** }
 310              		.loc 1 172 0
 311 0042 07B0     		add	sp, sp, #28
 312              	.LCFI9:
 313              		.cfi_def_cfa_offset 4
 314              		@ sp needed
 315 0044 5DF804FB 		ldr	pc, [sp], #4
 316              	.L28:
 317              		.align	2
 318              	.L27:
 319 0048 00480040 		.word	1073760256
 320 004c 000C0240 		.word	1073875968
 321              		.cfi_endproc
 322              	.LFE139:
 324              		.section	.text.HAL_UART_MspDeInit,"ax",%progbits
 325              		.align	1
 326              		.global	HAL_UART_MspDeInit
 327              		.syntax unified
 328              		.thumb
 329              		.thumb_func
 330              		.fpu fpv5-sp-d16
 332              	HAL_UART_MspDeInit:
 333              	.LFB140:
 173:Src/stm32f7xx_hal_msp.c **** 
 174:Src/stm32f7xx_hal_msp.c **** void HAL_UART_MspDeInit(UART_HandleTypeDef* huart)
 175:Src/stm32f7xx_hal_msp.c **** {
 334              		.loc 1 175 0
 335              		.cfi_startproc
 336              		@ args = 0, pretend = 0, frame = 0
 337              		@ frame_needed = 0, uses_anonymous_args = 0
 338              	.LVL19:
 339 0000 08B5     		push	{r3, lr}
 340              	.LCFI10:
 341              		.cfi_def_cfa_offset 8
 342              		.cfi_offset 3, -8
 343              		.cfi_offset 14, -4
ARM GAS  /tmp/ccaPL8tU.s 			page 10


 176:Src/stm32f7xx_hal_msp.c **** 
 177:Src/stm32f7xx_hal_msp.c ****   if(huart->Instance==USART3)
 344              		.loc 1 177 0
 345 0002 0268     		ldr	r2, [r0]
 346 0004 074B     		ldr	r3, .L33
 347 0006 9A42     		cmp	r2, r3
 348 0008 00D0     		beq	.L32
 349              	.LVL20:
 350              	.L29:
 178:Src/stm32f7xx_hal_msp.c ****   {
 179:Src/stm32f7xx_hal_msp.c ****   /* USER CODE BEGIN USART3_MspDeInit 0 */
 180:Src/stm32f7xx_hal_msp.c **** 
 181:Src/stm32f7xx_hal_msp.c ****   /* USER CODE END USART3_MspDeInit 0 */
 182:Src/stm32f7xx_hal_msp.c ****     /* Peripheral clock disable */
 183:Src/stm32f7xx_hal_msp.c ****     __HAL_RCC_USART3_CLK_DISABLE();
 184:Src/stm32f7xx_hal_msp.c ****   
 185:Src/stm32f7xx_hal_msp.c ****     /**USART3 GPIO Configuration    
 186:Src/stm32f7xx_hal_msp.c ****     PD8     ------> USART3_TX
 187:Src/stm32f7xx_hal_msp.c ****     PD9     ------> USART3_RX 
 188:Src/stm32f7xx_hal_msp.c ****     */
 189:Src/stm32f7xx_hal_msp.c ****     HAL_GPIO_DeInit(GPIOD, STLK_RX_Pin|STLK_TX_Pin);
 190:Src/stm32f7xx_hal_msp.c **** 
 191:Src/stm32f7xx_hal_msp.c ****   /* USER CODE BEGIN USART3_MspDeInit 1 */
 192:Src/stm32f7xx_hal_msp.c **** 
 193:Src/stm32f7xx_hal_msp.c ****   /* USER CODE END USART3_MspDeInit 1 */
 194:Src/stm32f7xx_hal_msp.c ****   }
 195:Src/stm32f7xx_hal_msp.c **** 
 196:Src/stm32f7xx_hal_msp.c **** }
 351              		.loc 1 196 0
 352 000a 08BD     		pop	{r3, pc}
 353              	.LVL21:
 354              	.L32:
 183:Src/stm32f7xx_hal_msp.c ****   
 355              		.loc 1 183 0
 356 000c 064A     		ldr	r2, .L33+4
 357 000e 136C     		ldr	r3, [r2, #64]
 358 0010 23F48023 		bic	r3, r3, #262144
 359 0014 1364     		str	r3, [r2, #64]
 189:Src/stm32f7xx_hal_msp.c **** 
 360              		.loc 1 189 0
 361 0016 4FF44071 		mov	r1, #768
 362 001a 0448     		ldr	r0, .L33+8
 363              	.LVL22:
 364 001c FFF7FEFF 		bl	HAL_GPIO_DeInit
 365              	.LVL23:
 366              		.loc 1 196 0
 367 0020 F3E7     		b	.L29
 368              	.L34:
 369 0022 00BF     		.align	2
 370              	.L33:
 371 0024 00480040 		.word	1073760256
 372 0028 00380240 		.word	1073887232
 373 002c 000C0240 		.word	1073875968
 374              		.cfi_endproc
 375              	.LFE140:
 377              		.text
 378              	.Letext0:
ARM GAS  /tmp/ccaPL8tU.s 			page 11


 379              		.file 2 "/usr/arm-none-eabi/include/machine/_default_types.h"
 380              		.file 3 "/usr/arm-none-eabi/include/sys/_stdint.h"
 381              		.file 4 "Drivers/CMSIS/Include/core_cm7.h"
 382              		.file 5 "Drivers/CMSIS/Device/ST/STM32F7xx/Include/system_stm32f7xx.h"
 383              		.file 6 "Drivers/CMSIS/Device/ST/STM32F7xx/Include/stm32f746xx.h"
 384              		.file 7 "/usr/arm-none-eabi/include/sys/lock.h"
 385              		.file 8 "/usr/arm-none-eabi/include/sys/_types.h"
 386              		.file 9 "/usr/lib/gcc/arm-none-eabi/7.1.0/include/stddef.h"
 387              		.file 10 "/usr/arm-none-eabi/include/sys/reent.h"
 388              		.file 11 "Drivers/STM32F7xx_HAL_Driver/Inc/stm32f7xx_hal_def.h"
 389              		.file 12 "Drivers/STM32F7xx_HAL_Driver/Inc/stm32f7xx_hal_gpio.h"
 390              		.file 13 "Drivers/STM32F7xx_HAL_Driver/Inc/stm32f7xx_hal_dma.h"
 391              		.file 14 "Drivers/STM32F7xx_HAL_Driver/Inc/stm32f7xx_hal_i2c.h"
 392              		.file 15 "Drivers/STM32F7xx_HAL_Driver/Inc/stm32f7xx_hal_uart.h"
 393              		.file 16 "Drivers/STM32F7xx_HAL_Driver/Inc/stm32f7xx_hal_cortex.h"
ARM GAS  /tmp/ccaPL8tU.s 			page 12

